target datalayout = "e-m:e-p270:32:32-p271:32:32-p272:64:64-i64:64-i128:128-f80:128-n8:16:32:64-S128"
target triple = "x86_64-pc-linux-gnu"

@stderr = external global ptr, align 8
@.str = private unnamed_addr constant [58 x i8] c"integer overflow when trying to allocate %zu * %zu bytes\0A\00", align 1
@.str.1 = private unnamed_addr constant [49 x i8] c"out of memory when trying to allocate %zu bytes\0A\00", align 1

; Function Attrs: inlinehint nounwind uwtable
define internal ptr @gv_calloc(i64 noundef %0, i64 noundef %1) #2 {
  %3 = alloca i64, align 8
  %4 = alloca i64, align 8
  %5 = alloca ptr, align 8
  store i64 %0, ptr %3, align 8, !tbaa !25
  store i64 %1, ptr %4, align 8, !tbaa !25
  %6 = load i64, ptr %3, align 8, !tbaa !25
  %7 = icmp ugt i64 %6, 0
  br i1 %7, label %8, label %18

8:                                                ; preds = %2
  %9 = load i64, ptr %3, align 8, !tbaa !25
  %10 = udiv i64 -1, %9
  %11 = load i64, ptr %4, align 8, !tbaa !25
  %12 = icmp ult i64 %10, %11
  br i1 %12, label %13, label %18

13:                                               ; preds = %8
  %14 = load ptr, ptr @stderr, align 8, !tbaa !27
  %15 = load i64, ptr %3, align 8, !tbaa !25
  %16 = load i64, ptr %4, align 8, !tbaa !25
  %17 = call i32 (ptr, ptr, ...) @fprintf(ptr noundef %14, ptr noundef @.str, i64 noundef %15, i64 noundef %16) #8
  call void @graphviz_exit(i32 noundef 1) #9
  unreachable

18:                                               ; preds = %8, %2
  call void @llvm.lifetime.start.p0(i64 8, ptr %5) #8
  %19 = load i64, ptr %3, align 8, !tbaa !25
  %20 = load i64, ptr %4, align 8, !tbaa !25
  %21 = call noalias ptr @calloc(i64 noundef %19, i64 noundef %20) #10
  store ptr %21, ptr %5, align 8, !tbaa !29
  %22 = load i64, ptr %3, align 8, !tbaa !25
  %23 = icmp ugt i64 %22, 0
  br i1 %23, label %24, label %36

24:                                               ; preds = %18
  %25 = load i64, ptr %4, align 8, !tbaa !25
  %26 = icmp ugt i64 %25, 0
  br i1 %26, label %27, label %36

27:                                               ; preds = %24
  %28 = load ptr, ptr %5, align 8, !tbaa !29
  %29 = icmp eq ptr %28, null
  br i1 %29, label %30, label %36

30:                                               ; preds = %27
  %31 = load ptr, ptr @stderr, align 8, !tbaa !27
  %32 = load i64, ptr %3, align 8, !tbaa !25
  %33 = load i64, ptr %4, align 8, !tbaa !25
  %34 = mul i64 %32, %33
  %35 = call i32 (ptr, ptr, ...) @fprintf(ptr noundef %31, ptr noundef @.str.1, i64 noundef %34) #8
  call void @graphviz_exit(i32 noundef 1) #9
  unreachable

36:                                               ; preds = %27, %24, %18
  %37 = load ptr, ptr %5, align 8, !tbaa !29
  call void @llvm.lifetime.end.p0(i64 8, ptr %5) #8
  ret ptr %37
}

; Function Attrs: nounwind uwtable
define void @mult_dense_mat_d(ptr noundef %0, ptr noundef %1, i32 noundef %2, i32 noundef %3, i32 noundef %4, ptr noundef %5) #0 {
  %7 = alloca ptr, align 8
  %8 = alloca ptr, align 8
  %9 = alloca i32, align 4
  %10 = alloca i32, align 4
  %11 = alloca i32, align 4
  %12 = alloca ptr, align 8
  %13 = alloca i32, align 4
  %14 = alloca i32, align 4
  %15 = alloca i32, align 4
  %16 = alloca double, align 8
  %17 = alloca ptr, align 8
  %18 = alloca ptr, align 8
  store ptr %0, ptr %7, align 8, !tbaa !3
  store ptr %1, ptr %8, align 8, !tbaa !36
  store i32 %2, ptr %9, align 4, !tbaa !8
  store i32 %3, ptr %10, align 4, !tbaa !8
  store i32 %4, ptr %11, align 4, !tbaa !8
  store ptr %5, ptr %12, align 8, !tbaa !48
  call void @llvm.lifetime.start.p0(i64 4, ptr %13) #8
  call void @llvm.lifetime.start.p0(i64 4, ptr %14) #8
  call void @llvm.lifetime.start.p0(i64 4, ptr %15) #8
  call void @llvm.lifetime.start.p0(i64 8, ptr %16) #8
  call void @llvm.lifetime.start.p0(i64 8, ptr %17) #8
  %19 = load i32, ptr %9, align 4, !tbaa !8
  %20 = load i32, ptr %11, align 4, !tbaa !8
  %21 = mul nsw i32 %19, %20
  %22 = sext i32 %21 to i64
  %23 = call ptr @gv_calloc(i64 noundef %22, i64 noundef 8)
  store ptr %23, ptr %17, align 8, !tbaa !10
  call void @llvm.lifetime.start.p0(i64 8, ptr %18) #8
  %24 = load i32, ptr %9, align 4, !tbaa !8
  %25 = sext i32 %24 to i64
  %26 = call ptr @gv_calloc(i64 noundef %25, i64 noundef 8)
  %27 = load ptr, ptr %12, align 8, !tbaa !48
  store ptr %26, ptr %27, align 8, !tbaa !3
  store ptr %26, ptr %18, align 8, !tbaa !3
  store i32 0, ptr %13, align 4, !tbaa !8
  br label %28

28:                                               ; preds = %42, %6
  %29 = load i32, ptr %13, align 4, !tbaa !8
  %30 = load i32, ptr %9, align 4, !tbaa !8
  %31 = icmp slt i32 %29, %30
  br i1 %31, label %32, label %45

32:                                               ; preds = %28
  %33 = load ptr, ptr %17, align 8, !tbaa !10
  %34 = load ptr, ptr %18, align 8, !tbaa !3
  %35 = load i32, ptr %13, align 4, !tbaa !8
  %36 = sext i32 %35 to i64
  %37 = getelementptr inbounds ptr, ptr %34, i64 %36
  store ptr %33, ptr %37, align 8, !tbaa !10
  %38 = load i32, ptr %11, align 4, !tbaa !8
  %39 = load ptr, ptr %17, align 8, !tbaa !10
  %40 = sext i32 %38 to i64
  %41 = getelementptr inbounds double, ptr %39, i64 %40
  store ptr %41, ptr %17, align 8, !tbaa !10
  br label %42

42:                                               ; preds = %32
  %43 = load i32, ptr %13, align 4, !tbaa !8
  %44 = add nsw i32 %43, 1
  store i32 %44, ptr %13, align 4, !tbaa !8
  br label %28, !llvm.loop !50

45:                                               ; preds = %28
  store i32 0, ptr %13, align 4, !tbaa !8
  br label %46

46:                                               ; preds = %99, %45
  %47 = load i32, ptr %13, align 4, !tbaa !8
  %48 = load i32, ptr %9, align 4, !tbaa !8
  %49 = icmp slt i32 %47, %48
  br i1 %49, label %50, label %102

50:                                               ; preds = %46
  store i32 0, ptr %14, align 4, !tbaa !8
  br label %51

51:                                               ; preds = %95, %50
  %52 = load i32, ptr %14, align 4, !tbaa !8
  %53 = load i32, ptr %11, align 4, !tbaa !8
  %54 = icmp slt i32 %52, %53
  br i1 %54, label %55, label %98

55:                                               ; preds = %51
  store double 0.000000e+00, ptr %16, align 8, !tbaa !12
  store i32 0, ptr %15, align 4, !tbaa !8
  br label %56

56:                                               ; preds = %82, %55
  %57 = load i32, ptr %15, align 4, !tbaa !8
  %58 = load i32, ptr %10, align 4, !tbaa !8
  %59 = icmp slt i32 %57, %58
  br i1 %59, label %60, label %85

60:                                               ; preds = %56
  %61 = load ptr, ptr %7, align 8, !tbaa !3
  %62 = load i32, ptr %13, align 4, !tbaa !8
  %63 = sext i32 %62 to i64
  %64 = getelementptr inbounds ptr, ptr %61, i64 %63
  %65 = load ptr, ptr %64, align 8, !tbaa !10
  %66 = load i32, ptr %15, align 4, !tbaa !8
  %67 = sext i32 %66 to i64
  %68 = getelementptr inbounds double, ptr %65, i64 %67
  %69 = load double, ptr %68, align 8, !tbaa !12
  %70 = load ptr, ptr %8, align 8, !tbaa !36
  %71 = load i32, ptr %15, align 4, !tbaa !8
  %72 = sext i32 %71 to i64
  %73 = getelementptr inbounds ptr, ptr %70, i64 %72
  %74 = load ptr, ptr %73, align 8, !tbaa !40
  %75 = load i32, ptr %14, align 4, !tbaa !8
  %76 = sext i32 %75 to i64
  %77 = getelementptr inbounds float, ptr %74, i64 %76
  %78 = load float, ptr %77, align 4, !tbaa !43
  %79 = fpext float %78 to double
  %80 = load double, ptr %16, align 8, !tbaa !12
  %81 = call double @llvm.fmuladd.f64(double %69, double %79, double %80)
  store double %81, ptr %16, align 8, !tbaa !12
  br label %82

82:                                               ; preds = %60
  %83 = load i32, ptr %15, align 4, !tbaa !8
  %84 = add nsw i32 %83, 1
  store i32 %84, ptr %15, align 4, !tbaa !8
  br label %56, !llvm.loop !51

85:                                               ; preds = %56
  %86 = load double, ptr %16, align 8, !tbaa !12
  %87 = load ptr, ptr %18, align 8, !tbaa !3
  %88 = load i32, ptr %13, align 4, !tbaa !8
  %89 = sext i32 %88 to i64
  %90 = getelementptr inbounds ptr, ptr %87, i64 %89
  %91 = load ptr, ptr %90, align 8, !tbaa !10
  %92 = load i32, ptr %14, align 4, !tbaa !8
  %93 = sext i32 %92 to i64
  %94 = getelementptr inbounds double, ptr %91, i64 %93
  store double %86, ptr %94, align 8, !tbaa !12
  br label %95

95:                                               ; preds = %85
  %96 = load i32, ptr %14, align 4, !tbaa !8
  %97 = add nsw i32 %96, 1
  store i32 %97, ptr %14, align 4, !tbaa !8
  br label %51, !llvm.loop !52

98:                                               ; preds = %51
  br label %99

99:                                               ; preds = %98
  %100 = load i32, ptr %13, align 4, !tbaa !8
  %101 = add nsw i32 %100, 1
  store i32 %101, ptr %13, align 4, !tbaa !8
  br label %46, !llvm.loop !53

102:                                              ; preds = %46
  call void @llvm.lifetime.end.p0(i64 8, ptr %18) #8
  call void @llvm.lifetime.end.p0(i64 8, ptr %17) #8
  call void @llvm.lifetime.end.p0(i64 8, ptr %16) #8
  call void @llvm.lifetime.end.p0(i64 4, ptr %15) #8
  call void @llvm.lifetime.end.p0(i64 4, ptr %14) #8
  call void @llvm.lifetime.end.p0(i64 4, ptr %13) #8
  ret void
}